target datalayout = "e-m:e-p270:32:32-p271:32:32-p272:64:64-i64:64-i128:128-f80:128-n8:16:32:64-S128"
target triple = "x86_64-pc-linux-gnu"

%"class.pbrt::Medium" = type { %"class.pbrt::TaggedPointer" }
%"class.pbrt::TaggedPointer" = type { i64 }
%"class.pbrt::LightBase" = type { i32, %"class.pbrt::Transform", %"struct.pbrt::MediumInterface" }
%"class.pbrt::Transform" = type { %"class.pbrt::SquareMatrix.10", %"class.pbrt::SquareMatrix.10" }
%"class.pbrt::SquareMatrix.10" = type { [4 x [4 x float]] }
%"struct.pbrt::MediumInterface" = type { %"class.pbrt::Medium", %"class.pbrt::Medium" }

@_ZN4pbrtL9numLightsE = internal thread_local global i64 0, align 8

; Function Attrs: mustprogress nounwind uwtable
define linkonce_odr dso_local void @_ZN4pbrt13TaggedPointerIJNS_17HomogeneousMediumENS_10GridMediumENS_13RGBGridMediumENS_11CloudMediumENS_13NanoVDBMediumEEEC2ERKS6_(ptr noundef nonnull align 8 dereferenceable(8) %0, ptr noundef nonnull align 8 dereferenceable(8) %1) unnamed_addr #6 comdat align 2 {
  %3 = alloca ptr, align 8
  %4 = alloca ptr, align 8
  store ptr %0, ptr %3, align 8, !tbaa !619
  store ptr %1, ptr %4, align 8, !tbaa !619
  %5 = load ptr, ptr %3, align 8
  %6 = getelementptr inbounds nuw %"class.pbrt::TaggedPointer", ptr %5, i32 0, i32 0
  store i64 0, ptr %6, align 8, !tbaa !621
  %7 = load ptr, ptr %4, align 8, !tbaa !619
  %8 = getelementptr inbounds nuw %"class.pbrt::TaggedPointer", ptr %7, i32 0, i32 0
  %9 = load i64, ptr %8, align 8, !tbaa !621
  %10 = getelementptr inbounds nuw %"class.pbrt::TaggedPointer", ptr %5, i32 0, i32 0
  store i64 %9, ptr %10, align 8, !tbaa !621
  ret void
}

; Function Attrs: inlinehint mustprogress uwtable
define linkonce_odr dso_local void @_ZN4pbrt6MediumC2ERKS0_(ptr noundef nonnull align 8 dereferenceable(8) %0, ptr noundef nonnull align 8 dereferenceable(8) %1) unnamed_addr #5 comdat align 2 {
  %3 = alloca ptr, align 8
  %4 = alloca ptr, align 8
  store ptr %0, ptr %3, align 8, !tbaa !148
  store ptr %1, ptr %4, align 8, !tbaa !148
  %5 = load ptr, ptr %3, align 8
  %6 = load ptr, ptr %4, align 8, !tbaa !148
  call void @_ZN4pbrt13TaggedPointerIJNS_17HomogeneousMediumENS_10GridMediumENS_13RGBGridMediumENS_11CloudMediumENS_13NanoVDBMediumEEEC2ERKS6_(ptr noundef nonnull align 8 dereferenceable(8) %5, ptr noundef nonnull align 8 dereferenceable(8) %6)
  ret void
}

; Function Attrs: inlinehint mustprogress uwtable
define linkonce_odr dso_local void @_ZN4pbrt15MediumInterfaceC2ERKS0_(ptr noundef nonnull align 8 dereferenceable(16) %0, ptr noundef nonnull align 8 dereferenceable(16) %1) unnamed_addr #5 comdat align 2 {
  %3 = alloca ptr, align 8
  %4 = alloca ptr, align 8
  store ptr %0, ptr %3, align 8, !tbaa !42
  store ptr %1, ptr %4, align 8, !tbaa !42
  %5 = load ptr, ptr %3, align 8
  %6 = getelementptr inbounds nuw %"struct.pbrt::MediumInterface", ptr %5, i32 0, i32 0
  %7 = load ptr, ptr %4, align 8, !tbaa !42
  %8 = getelementptr inbounds nuw %"struct.pbrt::MediumInterface", ptr %7, i32 0, i32 0
  call void @_ZN4pbrt6MediumC2ERKS0_(ptr noundef nonnull align 8 dereferenceable(8) %6, ptr noundef nonnull align 8 dereferenceable(8) %8)
  %9 = getelementptr inbounds nuw %"struct.pbrt::MediumInterface", ptr %5, i32 0, i32 1
  %10 = load ptr, ptr %4, align 8, !tbaa !42
  %11 = getelementptr inbounds nuw %"struct.pbrt::MediumInterface", ptr %10, i32 0, i32 1
  call void @_ZN4pbrt6MediumC2ERKS0_(ptr noundef nonnull align 8 dereferenceable(8) %9, ptr noundef nonnull align 8 dereferenceable(8) %11)
  ret void
}

; Function Attrs: mustprogress uwtable
define dso_local void @_ZN4pbrt9LightBaseC2ENS_9LightTypeERKNS_9TransformERKNS_15MediumInterfaceE(ptr noundef nonnull align 8 dereferenceable(152) %0, i32 noundef %1, ptr noundef nonnull align 4 dereferenceable(128) %2, ptr noundef nonnull align 8 dereferenceable(16) %3) unnamed_addr #1 align 2 {
  %5 = alloca ptr, align 8
  %6 = alloca i32, align 4
  %7 = alloca ptr, align 8
  %8 = alloca ptr, align 8
  store ptr %0, ptr %5, align 8, !tbaa !38
  store i32 %1, ptr %6, align 4, !tbaa !32
  store ptr %2, ptr %7, align 8, !tbaa !40
  store ptr %3, ptr %8, align 8, !tbaa !42
  %9 = load ptr, ptr %5, align 8
  %10 = getelementptr inbounds nuw %"class.pbrt::LightBase", ptr %9, i32 0, i32 0
  %11 = load i32, ptr %6, align 4, !tbaa !32
  store i32 %11, ptr %10, align 8, !tbaa !44
  %12 = getelementptr inbounds nuw %"class.pbrt::LightBase", ptr %9, i32 0, i32 1
  %13 = load ptr, ptr %7, align 8, !tbaa !40
  call void @llvm.memcpy.p0.p0.i64(ptr align 4 %12, ptr align 4 %13, i64 128, i1 false), !tbaa.struct !52
  %14 = getelementptr inbounds nuw %"class.pbrt::LightBase", ptr %9, i32 0, i32 2
  %15 = load ptr, ptr %8, align 8, !tbaa !42
  call void @_ZN4pbrt15MediumInterfaceC2ERKS0_(ptr noundef nonnull align 8 dereferenceable(16) %14, ptr noundef nonnull align 8 dereferenceable(16) %15)
  %16 = call align 8 ptr @llvm.threadlocal.address.p0(ptr align 8 @_ZN4pbrtL9numLightsE)
  %17 = load i64, ptr %16, align 8, !tbaa !54
  %18 = add nsw i64 %17, 1
  store i64 %18, ptr %16, align 8, !tbaa !54
  ret void
}