; Function Attrs: mustprogress nofree norecurse nosync nounwind willreturn memory(readwrite, inaccessiblemem: none) uwtable
define dso_local void @_ZN4pbrt9LightBaseC2ENS_9LightTypeERKNS_9TransformERKNS_15MediumInterfaceE(ptr noundef nonnull writeonly align 8 captures(none) dereferenceable(152) initializes((0, 132), (136, 152)) %0, i32 noundef %1, ptr noundef nonnull readonly align 4 captures(none) dereferenceable(128) %2, ptr noundef nonnull readonly align 8 captures(none) dereferenceable(16) %3) unnamed_addr #4 align 2 {
  store i32 %1, ptr %0, align 8, !tbaa !22
  %5 = getelementptr inbounds nuw i8, ptr %0, i64 4
  tail call void @llvm.memcpy.p0.p0.i64(ptr noundef nonnull align 4 dereferenceable(128) %5, ptr noundef nonnull align 4 dereferenceable(128) %2, i64 128, i1 false), !tbaa.struct !30
  %6 = getelementptr inbounds nuw i8, ptr %0, i64 136
  store i64 0, ptr %6, align 8, !tbaa !31
  %7 = load i64, ptr %3, align 8, !tbaa !31
  store i64 %7, ptr %6, align 8, !tbaa !31
  %8 = getelementptr inbounds nuw i8, ptr %0, i64 144
  %9 = getelementptr inbounds nuw i8, ptr %3, i64 8
  store i64 0, ptr %8, align 8, !tbaa !31
  %10 = load i64, ptr %9, align 8, !tbaa !31
  store i64 %10, ptr %8, align 8, !tbaa !31
  %11 = tail call align 8 ptr @llvm.threadlocal.address.p0(ptr align 8 @_ZN4pbrtL9numLightsE)
  %12 = load i64, ptr %11, align 8, !tbaa !21
  %13 = add nsw i64 %12, 1
  store i64 %13, ptr %11, align 8, !tbaa !21
  ret void
}